; ModuleID = 'source-C-CXX/7/854.c'
source_filename = "source-C-CXX/7/854.c"
target datalayout = "e-m:e-p270:32:32-p271:32:32-p272:64:64-i64:64-f80:128-n8:16:32:64-S128"
target triple = "x86_64-pc-linux-gnu"

@.str = private unnamed_addr constant [5 x i8] c"%d%d\00", align 1
@.str.1 = private unnamed_addr constant [3 x i8] c"%d\00", align 1
@.str.2 = private unnamed_addr constant [4 x i8] c"%d \00", align 1

; Function Attrs: nofree norecurse nosync nounwind sspstrong uwtable
define dso_local void @bubble(i32* nocapture %0, i32 %1) local_unnamed_addr #0 {
  %3 = icmp sgt i32 %1, 1
  br i1 %3, label %4, label %48

4:                                                ; preds = %2, %44
  %5 = phi i32 [ %47, %44 ], [ 0, %2 ]
  %6 = phi i32 [ %45, %44 ], [ 1, %2 ]
  %7 = xor i32 %5, -1
  %8 = add i32 %7, %1
  %9 = zext i32 %8 to i64
  %10 = icmp slt i32 %6, %1
  br i1 %10, label %11, label %44

11:                                               ; preds = %4
  %12 = load i32, i32* %0, align 4, !tbaa !5
  %13 = and i64 %9, 1
  %14 = icmp eq i32 %8, 1
  br i1 %14, label %33, label %15

15:                                               ; preds = %11
  %16 = and i64 %9, 4294967294
  br label %17

17:                                               ; preds = %51, %15
  %18 = phi i32 [ %12, %15 ], [ %52, %51 ]
  %19 = phi i64 [ 0, %15 ], [ %29, %51 ]
  %20 = phi i64 [ %16, %15 ], [ %53, %51 ]
  %21 = or i64 %19, 1
  %22 = getelementptr inbounds i32, i32* %0, i64 %21
  %23 = load i32, i32* %22, align 4, !tbaa !5
  %24 = icmp sgt i32 %18, %23
  br i1 %24, label %25, label %27

25:                                               ; preds = %17
  %26 = getelementptr inbounds i32, i32* %0, i64 %19
  store i32 %23, i32* %26, align 4, !tbaa !5
  store i32 %18, i32* %22, align 4, !tbaa !5
  br label %27

27:                                               ; preds = %17, %25
  %28 = phi i32 [ %23, %17 ], [ %18, %25 ]
  %29 = add nuw nsw i64 %19, 2
  %30 = getelementptr inbounds i32, i32* %0, i64 %29
  %31 = load i32, i32* %30, align 4, !tbaa !5
  %32 = icmp sgt i32 %28, %31
  br i1 %32, label %49, label %51

33:                                               ; preds = %51, %11
  %34 = phi i32 [ %12, %11 ], [ %52, %51 ]
  %35 = phi i64 [ 0, %11 ], [ %29, %51 ]
  %36 = icmp eq i64 %13, 0
  br i1 %36, label %44, label %37

37:                                               ; preds = %33
  %38 = add nuw nsw i64 %35, 1
  %39 = getelementptr inbounds i32, i32* %0, i64 %38
  %40 = load i32, i32* %39, align 4, !tbaa !5
  %41 = icmp sgt i32 %34, %40
  br i1 %41, label %42, label %44

42:                                               ; preds = %37
  %43 = getelementptr inbounds i32, i32* %0, i64 %35
  store i32 %40, i32* %43, align 4, !tbaa !5
  store i32 %34, i32* %39, align 4, !tbaa !5
  br label %44

44:                                               ; preds = %33, %37, %42, %4
  %45 = add nuw nsw i32 %6, 1
  %46 = icmp eq i32 %45, %1
  %47 = add i32 %5, 1
  br i1 %46, label %48, label %4, !llvm.loop !9

48:                                               ; preds = %44, %2
  ret void

49:                                               ; preds = %27
  %50 = getelementptr inbounds i32, i32* %0, i64 %21
  store i32 %31, i32* %50, align 4, !tbaa !5
  store i32 %28, i32* %30, align 4, !tbaa !5
  br label %51

51:                                               ; preds = %49, %27
  %52 = phi i32 [ %31, %27 ], [ %28, %49 ]
  %53 = add i64 %20, -2
  %54 = icmp eq i64 %53, 0
  br i1 %54, label %33, label %17, !llvm.loop !11
}

; Function Attrs: argmemonly mustprogress nofree nosync nounwind willreturn
declare void @llvm.lifetime.start.p0i8(i64 immarg, i8* nocapture) #1

; Function Attrs: argmemonly mustprogress nofree nosync nounwind willreturn
declare void @llvm.lifetime.end.p0i8(i64 immarg, i8* nocapture) #1

; Function Attrs: nofree nounwind sspstrong uwtable
define dso_local i32 @main() local_unnamed_addr #2 {
  %1 = alloca i32, align 4
  %2 = alloca i32, align 4
  %3 = alloca [10000 x i32], align 16
  %4 = alloca [10000 x i32], align 16
  %5 = bitcast i32* %1 to i8*
  call void @llvm.lifetime.start.p0i8(i64 4, i8* nonnull %5) #5
  %6 = bitcast i32* %2 to i8*
  call void @llvm.lifetime.start.p0i8(i64 4, i8* nonnull %6) #5
  %7 = bitcast [10000 x i32]* %3 to i8*
  call void @llvm.lifetime.start.p0i8(i64 40000, i8* nonnull %7) #5
  %8 = bitcast [10000 x i32]* %4 to i8*
  call void @llvm.lifetime.start.p0i8(i64 40000, i8* nonnull %8) #5
  %9 = call i32 (i8*, ...) @__isoc99_scanf(i8* getelementptr inbounds ([5 x i8], [5 x i8]* @.str, i64 0, i64 0), i32* nonnull %1, i32* nonnull %2)
  %10 = load i32, i32* %1, align 4, !tbaa !5
  %11 = icmp sgt i32 %10, 0
  br i1 %11, label %16, label %12

12:                                               ; preds = %16, %0
  %13 = phi i32 [ %10, %0 ], [ %21, %16 ]
  %14 = load i32, i32* %2, align 4, !tbaa !5
  %15 = icmp sgt i32 %14, 0
  br i1 %15, label %24, label %34

16:                                               ; preds = %0, %16
  %17 = phi i64 [ %20, %16 ], [ 0, %0 ]
  %18 = getelementptr inbounds [10000 x i32], [10000 x i32]* %3, i64 0, i64 %17
  %19 = call i32 (i8*, ...) @__isoc99_scanf(i8* getelementptr inbounds ([3 x i8], [3 x i8]* @.str.1, i64 0, i64 0), i32* nonnull %18)
  %20 = add nuw nsw i64 %17, 1
  %21 = load i32, i32* %1, align 4, !tbaa !5
  %22 = sext i32 %21 to i64
  %23 = icmp slt i64 %20, %22
  br i1 %23, label %16, label %12, !llvm.loop !12

24:                                               ; preds = %12, %24
  %25 = phi i64 [ %28, %24 ], [ 0, %12 ]
  %26 = getelementptr inbounds [10000 x i32], [10000 x i32]* %4, i64 0, i64 %25
  %27 = call i32 (i8*, ...) @__isoc99_scanf(i8* getelementptr inbounds ([3 x i8], [3 x i8]* @.str.1, i64 0, i64 0), i32* nonnull %26)
  %28 = add nuw nsw i64 %25, 1
  %29 = load i32, i32* %2, align 4, !tbaa !5
  %30 = sext i32 %29 to i64
  %31 = icmp slt i64 %28, %30
  br i1 %31, label %24, label %32, !llvm.loop !13

32:                                               ; preds = %24
  %33 = load i32, i32* %1, align 4, !tbaa !5
  br label %34

34:                                               ; preds = %32, %12
  %35 = phi i32 [ %13, %12 ], [ %33, %32 ]
  %36 = phi i32 [ %14, %12 ], [ %29, %32 ]
  %37 = getelementptr inbounds [10000 x i32], [10000 x i32]* %3, i64 0, i64 0
  %38 = icmp sgt i32 %35, 1
  br i1 %38, label %39, label %83

39:                                               ; preds = %34, %79
  %40 = phi i32 [ %82, %79 ], [ 0, %34 ]
  %41 = phi i32 [ %80, %79 ], [ 1, %34 ]
  %42 = xor i32 %40, -1
  %43 = add i32 %35, %42
  %44 = zext i32 %43 to i64
  %45 = icmp slt i32 %41, %35
  br i1 %45, label %46, label %79

46:                                               ; preds = %39
  %47 = load i32, i32* %37, align 16, !tbaa !5
  %48 = and i64 %44, 1
  %49 = icmp eq i32 %43, 1
  br i1 %49, label %68, label %50

50:                                               ; preds = %46
  %51 = and i64 %44, 4294967294
  br label %52

52:                                               ; preds = %166, %50
  %53 = phi i32 [ %47, %50 ], [ %167, %166 ]
  %54 = phi i64 [ 0, %50 ], [ %64, %166 ]
  %55 = phi i64 [ %51, %50 ], [ %168, %166 ]
  %56 = or i64 %54, 1
  %57 = getelementptr inbounds [10000 x i32], [10000 x i32]* %3, i64 0, i64 %56
  %58 = load i32, i32* %57, align 4, !tbaa !5
  %59 = icmp sgt i32 %53, %58
  br i1 %59, label %60, label %62

60:                                               ; preds = %52
  %61 = getelementptr inbounds [10000 x i32], [10000 x i32]* %3, i64 0, i64 %54
  store i32 %58, i32* %61, align 8, !tbaa !5
  store i32 %53, i32* %57, align 4, !tbaa !5
  br label %62

62:                                               ; preds = %60, %52
  %63 = phi i32 [ %58, %52 ], [ %53, %60 ]
  %64 = add nuw nsw i64 %54, 2
  %65 = getelementptr inbounds [10000 x i32], [10000 x i32]* %3, i64 0, i64 %64
  %66 = load i32, i32* %65, align 8, !tbaa !5
  %67 = icmp sgt i32 %63, %66
  br i1 %67, label %164, label %166

68:                                               ; preds = %166, %46
  %69 = phi i32 [ %47, %46 ], [ %167, %166 ]
  %70 = phi i64 [ 0, %46 ], [ %64, %166 ]
  %71 = icmp eq i64 %48, 0
  br i1 %71, label %79, label %72

72:                                               ; preds = %68
  %73 = add nuw nsw i64 %70, 1
  %74 = getelementptr inbounds [10000 x i32], [10000 x i32]* %3, i64 0, i64 %73
  %75 = load i32, i32* %74, align 4, !tbaa !5
  %76 = icmp sgt i32 %69, %75
  br i1 %76, label %77, label %79

77:                                               ; preds = %72
  %78 = getelementptr inbounds [10000 x i32], [10000 x i32]* %3, i64 0, i64 %70
  store i32 %75, i32* %78, align 4, !tbaa !5
  store i32 %69, i32* %74, align 4, !tbaa !5
  br label %79

79:                                               ; preds = %68, %72, %77, %39
  %80 = add nuw nsw i32 %41, 1
  %81 = icmp eq i32 %80, %35
  %82 = add i32 %40, 1
  br i1 %81, label %83, label %39, !llvm.loop !9

83:                                               ; preds = %79, %34
  %84 = getelementptr inbounds [10000 x i32], [10000 x i32]* %4, i64 0, i64 0
  %85 = icmp sgt i32 %36, 1
  br i1 %85, label %86, label %130

86:                                               ; preds = %83, %126
  %87 = phi i32 [ %129, %126 ], [ 0, %83 ]
  %88 = phi i32 [ %127, %126 ], [ 1, %83 ]
  %89 = xor i32 %87, -1
  %90 = add i32 %36, %89
  %91 = zext i32 %90 to i64
  %92 = icmp slt i32 %88, %36
  br i1 %92, label %93, label %126

93:                                               ; preds = %86
  %94 = load i32, i32* %84, align 16, !tbaa !5
  %95 = and i64 %91, 1
  %96 = icmp eq i32 %90, 1
  br i1 %96, label %115, label %97

97:                                               ; preds = %93
  %98 = and i64 %91, 4294967294
  br label %99

99:                                               ; preds = %172, %97
  %100 = phi i32 [ %94, %97 ], [ %173, %172 ]
  %101 = phi i64 [ 0, %97 ], [ %111, %172 ]
  %102 = phi i64 [ %98, %97 ], [ %174, %172 ]
  %103 = or i64 %101, 1
  %104 = getelementptr inbounds [10000 x i32], [10000 x i32]* %4, i64 0, i64 %103
  %105 = load i32, i32* %104, align 4, !tbaa !5
  %106 = icmp sgt i32 %100, %105
  br i1 %106, label %107, label %109

107:                                              ; preds = %99
  %108 = getelementptr inbounds [10000 x i32], [10000 x i32]* %4, i64 0, i64 %101
  store i32 %105, i32* %108, align 8, !tbaa !5
  store i32 %100, i32* %104, align 4, !tbaa !5
  br label %109

109:                                              ; preds = %107, %99
  %110 = phi i32 [ %105, %99 ], [ %100, %107 ]
  %111 = add nuw nsw i64 %101, 2
  %112 = getelementptr inbounds [10000 x i32], [10000 x i32]* %4, i64 0, i64 %111
  %113 = load i32, i32* %112, align 8, !tbaa !5
  %114 = icmp sgt i32 %110, %113
  br i1 %114, label %170, label %172

115:                                              ; preds = %172, %93
  %116 = phi i32 [ %94, %93 ], [ %173, %172 ]
  %117 = phi i64 [ 0, %93 ], [ %111, %172 ]
  %118 = icmp eq i64 %95, 0
  br i1 %118, label %126, label %119

119:                                              ; preds = %115
  %120 = add nuw nsw i64 %117, 1
  %121 = getelementptr inbounds [10000 x i32], [10000 x i32]* %4, i64 0, i64 %120
  %122 = load i32, i32* %121, align 4, !tbaa !5
  %123 = icmp sgt i32 %116, %122
  br i1 %123, label %124, label %126

124:                                              ; preds = %119
  %125 = getelementptr inbounds [10000 x i32], [10000 x i32]* %4, i64 0, i64 %117
  store i32 %122, i32* %125, align 4, !tbaa !5
  store i32 %116, i32* %121, align 4, !tbaa !5
  br label %126

126:                                              ; preds = %115, %119, %124, %86
  %127 = add nuw nsw i32 %88, 1
  %128 = icmp eq i32 %127, %36
  %129 = add i32 %87, 1
  br i1 %128, label %130, label %86, !llvm.loop !9

130:                                              ; preds = %126, %83
  %131 = icmp sgt i32 %35, 0
  br i1 %131, label %137, label %134

132:                                              ; preds = %137
  %133 = load i32, i32* %2, align 4, !tbaa !5
  br label %134

134:                                              ; preds = %132, %130
  %135 = phi i32 [ %133, %132 ], [ %36, %130 ]
  %136 = icmp sgt i32 %135, 0
  br i1 %136, label %146, label %163

137:                                              ; preds = %130, %137
  %138 = phi i64 [ %142, %137 ], [ 0, %130 ]
  %139 = getelementptr inbounds [10000 x i32], [10000 x i32]* %3, i64 0, i64 %138
  %140 = load i32, i32* %139, align 4, !tbaa !5
  %141 = call i32 (i8*, ...) @printf(i8* nonnull dereferenceable(1) getelementptr inbounds ([4 x i8], [4 x i8]* @.str.2, i64 0, i64 0), i32 %140)
  %142 = add nuw nsw i64 %138, 1
  %143 = load i32, i32* %1, align 4, !tbaa !5
  %144 = sext i32 %143 to i64
  %145 = icmp slt i64 %142, %144
  br i1 %145, label %137, label %132, !llvm.loop !14

146:                                              ; preds = %134, %158
  %147 = phi i64 [ %160, %158 ], [ 0, %134 ]
  %148 = getelementptr inbounds [10000 x i32], [10000 x i32]* %4, i64 0, i64 %147
  %149 = load i32, i32* %148, align 4, !tbaa !5
  %150 = call i32 (i8*, ...) @printf(i8* nonnull dereferenceable(1) getelementptr inbounds ([3 x i8], [3 x i8]* @.str.1, i64 0, i64 0), i32 %149)
  %151 = load i32, i32* %2, align 4, !tbaa !5
  %152 = add nsw i32 %151, -1
  %153 = sext i32 %152 to i64
  %154 = icmp slt i64 %147, %153
  br i1 %154, label %155, label %158

155:                                              ; preds = %146
  %156 = call i32 @putchar(i32 32)
  %157 = load i32, i32* %2, align 4, !tbaa !5
  br label %158

158:                                              ; preds = %146, %155
  %159 = phi i32 [ %151, %146 ], [ %157, %155 ]
  %160 = add nuw nsw i64 %147, 1
  %161 = sext i32 %159 to i64
  %162 = icmp slt i64 %160, %161
  br i1 %162, label %146, label %163, !llvm.loop !15

163:                                              ; preds = %158, %134
  call void @llvm.lifetime.end.p0i8(i64 40000, i8* nonnull %8) #5
  call void @llvm.lifetime.end.p0i8(i64 40000, i8* nonnull %7) #5
  call void @llvm.lifetime.end.p0i8(i64 4, i8* nonnull %6) #5
  call void @llvm.lifetime.end.p0i8(i64 4, i8* nonnull %5) #5
  ret i32 0

164:                                              ; preds = %62
  %165 = getelementptr inbounds [10000 x i32], [10000 x i32]* %3, i64 0, i64 %56
  store i32 %66, i32* %165, align 4, !tbaa !5
  store i32 %63, i32* %65, align 8, !tbaa !5
  br label %166

166:                                              ; preds = %164, %62
  %167 = phi i32 [ %66, %62 ], [ %63, %164 ]
  %168 = add i64 %55, -2
  %169 = icmp eq i64 %168, 0
  br i1 %169, label %68, label %52, !llvm.loop !11

170:                                              ; preds = %109
  %171 = getelementptr inbounds [10000 x i32], [10000 x i32]* %4, i64 0, i64 %103
  store i32 %113, i32* %171, align 4, !tbaa !5
  store i32 %110, i32* %112, align 8, !tbaa !5
  br label %172

172:                                              ; preds = %170, %109
  %173 = phi i32 [ %113, %109 ], [ %110, %170 ]
  %174 = add i64 %102, -2
  %175 = icmp eq i64 %174, 0
  br i1 %175, label %115, label %99, !llvm.loop !11
}

; Function Attrs: nofree nounwind
declare noundef i32 @__isoc99_scanf(i8* nocapture noundef readonly, ...) local_unnamed_addr #3

; Function Attrs: nofree nounwind
declare noundef i32 @printf(i8* nocapture noundef readonly, ...) local_unnamed_addr #3

; Function Attrs: nofree nounwind
declare noundef i32 @putchar(i32 noundef) local_unnamed_addr #4


!llvm.module.flags = !{!0, !1, !2, !3}
!llvm.ident = !{!4}

!0 = !{i32 1, !"wchar_size", i32 4}
!1 = !{i32 7, !"PIC Level", i32 2}
!2 = !{i32 7, !"PIE Level", i32 2}
!3 = !{i32 7, !"uwtable", i32 1}
!4 = !{!"clang version 13.0.0"}
!5 = !{!6, !6, i64 0}
!6 = !{!"int", !7, i64 0}
!7 = !{!"omnipotent char", !8, i64 0}
!8 = !{!"Simple C/C++ TBAA"}
!9 = distinct !{!9, !10}
!10 = !{!"llvm.loop.mustprogress"}
!11 = distinct !{!11, !10}
!12 = distinct !{!12, !10}
!13 = distinct !{!13, !10}
!14 = distinct !{!14, !10}
!15 = distinct !{!15, !10}
